target datalayout = "e-m:e-p270:32:32-p271:32:32-p272:64:64-i64:64-i128:128-f80:128-n8:16:32:64-S128"
target triple = "x86_64-pc-linux-gnu"

%struct.Gia_Man_t_ = type { ptr, ptr, i32, i32, i32, i32, ptr, ptr, i32, i32, i32, ptr, ptr, %struct.Vec_Int_t_, %struct.Vec_Int_t_, i32, i32, i32, %struct.Vec_Int_t_, ptr, ptr, ptr, i32, i32, i32, i32, ptr, ptr, ptr, ptr, ptr, i32, i32, ptr, i32, ptr, ptr, ptr, ptr, ptr, ptr, ptr, ptr, ptr, ptr, ptr, ptr, ptr, ptr, ptr, ptr, ptr, ptr, %struct.Vec_Int_t_, %struct.Vec_Int_t_, ptr, ptr, ptr, ptr, ptr, ptr, ptr, ptr, ptr, ptr, ptr, ptr, ptr, ptr, ptr, ptr, ptr, ptr, ptr, ptr, ptr, i32, float, float, ptr, ptr, i32, ptr, ptr, ptr, ptr, ptr, ptr, ptr, ptr, ptr, ptr, ptr, ptr, ptr, ptr, ptr, i64, i64, ptr, ptr, i32, i32, i32, i32, i32, i32, i32, i32, i32, i32, i32, i32, ptr, ptr, ptr, ptr, ptr, ptr, ptr, ptr, i32, i32, i32, ptr, i32, i32, ptr, ptr, ptr, ptr, ptr, ptr, i32, i32, ptr, %struct.Vec_Int_t_, %struct.Vec_Int_t_, %struct.Vec_Int_t_, ptr, ptr, ptr, i32, i32, i32, i32, ptr, ptr, ptr, ptr, ptr }
%struct.Vec_Int_t_ = type { i32, i32, ptr }
%struct.Gia_Obj_t_ = type <{ i64, i32 }>
%struct.Abc_Cex_t_ = type { i32, i32, i32, i32, i32, [0 x i32] }

@.str.24 = private unnamed_addr constant [21 x i8] c"\0ASolving output %d:\0A\00", align 1

; Function Attrs: inlinehint nounwind uwtable
define internal ptr @Gia_ManObj(ptr noundef %0, i32 noundef %1) #4 {
  %3 = alloca ptr, align 8
  %4 = alloca i32, align 4
  store ptr %0, ptr %3, align 8, !tbaa !3
  store i32 %1, ptr %4, align 4, !tbaa !8
  %5 = load ptr, ptr %3, align 8, !tbaa !3
  %6 = getelementptr inbounds nuw %struct.Gia_Man_t_, ptr %5, i32 0, i32 6
  %7 = load ptr, ptr %6, align 8, !tbaa !34
  %8 = load i32, ptr %4, align 4, !tbaa !8
  %9 = sext i32 %8 to i64
  %10 = getelementptr inbounds %struct.Gia_Obj_t_, ptr %7, i64 %9
  ret ptr %10
}

; Function Attrs: inlinehint nounwind uwtable
define internal i32 @Vec_IntEntry(ptr noundef %0, i32 noundef %1) #4 {
  %3 = alloca ptr, align 8
  %4 = alloca i32, align 4
  store ptr %0, ptr %3, align 8, !tbaa !35
  store i32 %1, ptr %4, align 4, !tbaa !8
  %5 = load ptr, ptr %3, align 8, !tbaa !35
  %6 = getelementptr inbounds nuw %struct.Vec_Int_t_, ptr %5, i32 0, i32 2
  %7 = load ptr, ptr %6, align 8, !tbaa !40
  %8 = load i32, ptr %4, align 4, !tbaa !8
  %9 = sext i32 %8 to i64
  %10 = getelementptr inbounds i32, ptr %7, i64 %9
  %11 = load i32, ptr %10, align 4, !tbaa !8
  ret i32 %11
}

; Function Attrs: inlinehint nounwind uwtable
define internal i32 @Vec_IntSize(ptr noundef %0) #4 {
  %2 = alloca ptr, align 8
  store ptr %0, ptr %2, align 8, !tbaa !35
  %3 = load ptr, ptr %2, align 8, !tbaa !35
  %4 = getelementptr inbounds nuw %struct.Vec_Int_t_, ptr %3, i32 0, i32 1
  %5 = load i32, ptr %4, align 4, !tbaa !38
  ret i32 %5
}

; Function Attrs: inlinehint nounwind uwtable
define internal ptr @Gia_ManCo(ptr noundef %0, i32 noundef %1) #4 {
  %3 = alloca ptr, align 8
  %4 = alloca i32, align 4
  store ptr %0, ptr %3, align 8, !tbaa !3
  store i32 %1, ptr %4, align 4, !tbaa !8
  %5 = load ptr, ptr %3, align 8, !tbaa !3
  %6 = load ptr, ptr %3, align 8, !tbaa !3
  %7 = getelementptr inbounds nuw %struct.Gia_Man_t_, ptr %6, i32 0, i32 12
  %8 = load ptr, ptr %7, align 8, !tbaa !45
  %9 = load i32, ptr %4, align 4, !tbaa !8
  %10 = call i32 @Vec_IntEntry(ptr noundef %8, i32 noundef %9)
  %11 = call ptr @Gia_ManObj(ptr noundef %5, i32 noundef %10)
  ret ptr %11
}

; Function Attrs: inlinehint nounwind uwtable
define internal i32 @Gia_ManPoNum(ptr noundef %0) #4 {
  %2 = alloca ptr, align 8
  store ptr %0, ptr %2, align 8, !tbaa !3
  %3 = load ptr, ptr %2, align 8, !tbaa !3
  %4 = getelementptr inbounds nuw %struct.Gia_Man_t_, ptr %3, i32 0, i32 12
  %5 = load ptr, ptr %4, align 8, !tbaa !45
  %6 = call i32 @Vec_IntSize(ptr noundef %5)
  %7 = load ptr, ptr %2, align 8, !tbaa !3
  %8 = getelementptr inbounds nuw %struct.Gia_Man_t_, ptr %7, i32 0, i32 2
  %9 = load i32, ptr %8, align 8, !tbaa !42
  %10 = sub nsw i32 %6, %9
  ret i32 %10
}

; Function Attrs: nounwind uwtable
define i32 @Cec_GiaSplitTest(ptr noundef %0, i32 noundef %1, i32 noundef %2, i32 noundef %3, i32 noundef %4, i32 noundef %5, i32 noundef %6, i32 noundef %7) #0 {
  %9 = alloca ptr, align 8
  %10 = alloca i32, align 4
  %11 = alloca i32, align 4
  %12 = alloca i32, align 4
  %13 = alloca i32, align 4
  %14 = alloca i32, align 4
  %15 = alloca i32, align 4
  %16 = alloca i32, align 4
  %17 = alloca ptr, align 8
  %18 = alloca ptr, align 8
  %19 = alloca ptr, align 8
  %20 = alloca i32, align 4
  %21 = alloca i32, align 4
  %22 = alloca i32, align 4
  %23 = alloca i32, align 4
  store ptr %0, ptr %9, align 8, !tbaa !3
  store i32 %1, ptr %10, align 4, !tbaa !8
  store i32 %2, ptr %11, align 4, !tbaa !8
  store i32 %3, ptr %12, align 4, !tbaa !8
  store i32 %4, ptr %13, align 4, !tbaa !8
  store i32 %5, ptr %14, align 4, !tbaa !8
  store i32 %6, ptr %15, align 4, !tbaa !8
  store i32 %7, ptr %16, align 4, !tbaa !8
  call void @llvm.lifetime.start.p0(i64 8, ptr %17) #12
  store ptr null, ptr %17, align 8, !tbaa !57
  call void @llvm.lifetime.start.p0(i64 8, ptr %18) #12
  call void @llvm.lifetime.start.p0(i64 8, ptr %19) #12
  call void @llvm.lifetime.start.p0(i64 4, ptr %20) #12
  call void @llvm.lifetime.start.p0(i64 4, ptr %21) #12
  call void @llvm.lifetime.start.p0(i64 4, ptr %22) #12
  store i32 0, ptr %22, align 4, !tbaa !8
  call void @llvm.lifetime.start.p0(i64 4, ptr %23) #12
  store i32 -1, ptr %23, align 4, !tbaa !8
  %24 = load ptr, ptr %9, align 8, !tbaa !3
  %25 = getelementptr inbounds nuw %struct.Gia_Man_t_, ptr %24, i32 0, i32 50
  call void @Abc_CexFreeP(ptr noundef %25)
  store i32 0, ptr %20, align 4, !tbaa !8
  br label %26

26:                                               ; preds = %79, %8
  %27 = load i32, ptr %20, align 4, !tbaa !8
  %28 = load ptr, ptr %9, align 8, !tbaa !3
  %29 = call i32 @Gia_ManPoNum(ptr noundef %28)
  %30 = icmp slt i32 %27, %29
  br i1 %30, label %31, label %36

31:                                               ; preds = %26
  %32 = load ptr, ptr %9, align 8, !tbaa !3
  %33 = load i32, ptr %20, align 4, !tbaa !8
  %34 = call ptr @Gia_ManCo(ptr noundef %32, i32 noundef %33)
  store ptr %34, ptr %19, align 8, !tbaa !31
  %35 = icmp ne ptr %34, null
  br label %36

36:                                               ; preds = %31, %26
  %37 = phi i1 [ false, %26 ], [ %35, %31 ]
  br i1 %37, label %38, label %82

38:                                               ; preds = %36
  %39 = load ptr, ptr %9, align 8, !tbaa !3
  %40 = load i32, ptr %20, align 4, !tbaa !8
  %41 = load i32, ptr %20, align 4, !tbaa !8
  %42 = add nsw i32 %41, 1
  %43 = call ptr @Gia_ManDupOutputGroup(ptr noundef %39, i32 noundef %40, i32 noundef %42)
  store ptr %43, ptr %18, align 8, !tbaa !3
  %44 = load i32, ptr %14, align 4, !tbaa !8
  %45 = icmp ne i32 %44, 0
  br i1 %45, label %46, label %49

46:                                               ; preds = %38
  %47 = load i32, ptr %20, align 4, !tbaa !8
  %48 = call i32 (ptr, ...) @printf(ptr noundef @.str.24, i32 noundef %47)
  br label %49

49:                                               ; preds = %46, %38
  %50 = load ptr, ptr %18, align 8, !tbaa !3
  %51 = load i32, ptr %10, align 4, !tbaa !8
  %52 = load i32, ptr %11, align 4, !tbaa !8
  %53 = load i32, ptr %12, align 4, !tbaa !8
  %54 = load i32, ptr %13, align 4, !tbaa !8
  %55 = load i32, ptr %14, align 4, !tbaa !8
  %56 = load i32, ptr %15, align 4, !tbaa !8
  %57 = load i32, ptr %16, align 4, !tbaa !8
  %58 = call i32 @Cec_GiaSplitTestInt(ptr noundef %50, i32 noundef %51, i32 noundef %52, i32 noundef %53, i32 noundef %54, i32 noundef %55, i32 noundef %56, i32 noundef %57)
  store i32 %58, ptr %21, align 4, !tbaa !8
  %59 = load ptr, ptr %18, align 8, !tbaa !3
  call void @Gia_ManStop(ptr noundef %59)
  %60 = load i32, ptr %21, align 4, !tbaa !8
  %61 = icmp eq i32 %60, 0
  br i1 %61, label %62, label %74

62:                                               ; preds = %49
  %63 = load i32, ptr %23, align 4, !tbaa !8
  %64 = icmp eq i32 %63, -1
  br i1 %64, label %65, label %74

65:                                               ; preds = %62
  %66 = load ptr, ptr %18, align 8, !tbaa !3
  %67 = getelementptr inbounds nuw %struct.Gia_Man_t_, ptr %66, i32 0, i32 50
  %68 = load ptr, ptr %67, align 8, !tbaa !75
  store ptr %68, ptr %17, align 8, !tbaa !57
  %69 = load ptr, ptr %18, align 8, !tbaa !3
  %70 = getelementptr inbounds nuw %struct.Gia_Man_t_, ptr %69, i32 0, i32 50
  store ptr null, ptr %70, align 8, !tbaa !75
  %71 = load i32, ptr %20, align 4, !tbaa !8
  %72 = load ptr, ptr %17, align 8, !tbaa !57
  %73 = getelementptr inbounds nuw %struct.Abc_Cex_t_, ptr %72, i32 0, i32 0
  store i32 %71, ptr %73, align 4, !tbaa !108
  store i32 0, ptr %23, align 4, !tbaa !8
  br label %74

74:                                               ; preds = %65, %62, %49
  %75 = load i32, ptr %21, align 4, !tbaa !8
  %76 = icmp eq i32 %75, -1
  br i1 %76, label %77, label %78

77:                                               ; preds = %74
  store i32 1, ptr %22, align 4, !tbaa !8
  br label %78

78:                                               ; preds = %77, %74
  br label %79

79:                                               ; preds = %78
  %80 = load i32, ptr %20, align 4, !tbaa !8
  %81 = add nsw i32 %80, 1
  store i32 %81, ptr %20, align 4, !tbaa !8
  br label %26, !llvm.loop !110

82:                                               ; preds = %36
  %83 = load i32, ptr %23, align 4, !tbaa !8
  %84 = icmp eq i32 %83, -1
  br i1 %84, label %85, label %89

85:                                               ; preds = %82
  %86 = load i32, ptr %22, align 4, !tbaa !8
  %87 = icmp ne i32 %86, 0
  %88 = select i1 %87, i32 -1, i32 1
  store i32 %88, ptr %23, align 4, !tbaa !8
  br label %93

89:                                               ; preds = %82
  %90 = load ptr, ptr %17, align 8, !tbaa !57
  %91 = load ptr, ptr %9, align 8, !tbaa !3
  %92 = getelementptr inbounds nuw %struct.Gia_Man_t_, ptr %91, i32 0, i32 50
  store ptr %90, ptr %92, align 8, !tbaa !75
  br label %93

93:                                               ; preds = %89, %85
  %94 = load i32, ptr %23, align 4, !tbaa !8
  call void @llvm.lifetime.end.p0(i64 4, ptr %23) #12
  call void @llvm.lifetime.end.p0(i64 4, ptr %22) #12
  call void @llvm.lifetime.end.p0(i64 4, ptr %21) #12
  call void @llvm.lifetime.end.p0(i64 4, ptr %20) #12
  call void @llvm.lifetime.end.p0(i64 8, ptr %19) #12
  call void @llvm.lifetime.end.p0(i64 8, ptr %18) #12
  call void @llvm.lifetime.end.p0(i64 8, ptr %17) #12
  ret i32 %94
}