; Function Attrs: nounwind uwtable
define range(i32 -1, 2) i32 @Cec_GiaSplitTest(ptr noundef %0, i32 noundef %1, i32 noundef %2, i32 noundef %3, i32 noundef %4, i32 noundef %5, i32 noundef %6, i32 noundef %7) local_unnamed_addr #0 {
  %9 = getelementptr inbounds nuw i8, ptr %0, i64 368
  tail call void @Abc_CexFreeP(ptr noundef nonnull %9) #18
  %10 = getelementptr i8, ptr %0, i64 32
  %11 = getelementptr i8, ptr %0, i64 16
  %12 = getelementptr i8, ptr %0, i64 72
  %.val45 = load i32, ptr %11, align 8, !tbaa !34
  %.val4246 = load ptr, ptr %12, align 8, !tbaa !41
  %13 = getelementptr i8, ptr %.val4246, i64 4
  %.val42.val47 = load i32, ptr %13, align 4, !tbaa !36
  %14 = icmp sgt i32 %.val42.val47, %.val45
  br i1 %14, label %.lr.ph, label %.thread

.lr.ph:                                           ; preds = %8
  %.not41 = icmp eq i32 %5, 0
  br i1 %.not41, label %.lr.ph.split.us, label %.lr.ph.split

.lr.ph.split.us:                                  ; preds = %.lr.ph, %23
  %.051.us = phi i32 [ %.1.us, %23 ], [ -1, %.lr.ph ]
  %.03250.us = phi i32 [ %spec.select.us, %23 ], [ 0, %.lr.ph ]
  %.03449.us = phi ptr [ %.135.us, %23 ], [ null, %.lr.ph ]
  %.03648.us = phi i32 [ %15, %23 ], [ 0, %.lr.ph ]
  %.val43.us = load ptr, ptr %10, align 8, !tbaa !29
  %.not.us = icmp eq ptr %.val43.us, null
  br i1 %.not.us, label %.critedge, label %.split.us

.split.us:                                        ; preds = %.lr.ph.split.us
  %15 = add nuw nsw i32 %.03648.us, 1
  %16 = tail call ptr @Gia_ManDupOutputGroup(ptr noundef nonnull %0, i32 noundef %.03648.us, i32 noundef %15) #18
  %17 = tail call i32 @Cec_GiaSplitTestInt(ptr noundef %16, i32 noundef %1, i32 noundef %2, i32 noundef %3, i32 noundef %4, i32 noundef 0, i32 noundef %6, i32 noundef %7)
  tail call void @Gia_ManStop(ptr noundef %16) #18
  %18 = icmp eq i32 %17, 0
  %19 = icmp eq i32 %.051.us, -1
  %or.cond.us = select i1 %18, i1 %19, i1 false
  br i1 %or.cond.us, label %20, label %23

20:                                               ; preds = %.split.us
  %21 = getelementptr inbounds nuw i8, ptr %16, i64 368
  %22 = load ptr, ptr %21, align 8, !tbaa !78
  store ptr null, ptr %21, align 8, !tbaa !78
  store i32 %.03648.us, ptr %22, align 4, !tbaa !102
  br label %23

23:                                               ; preds = %20, %.split.us
  %.135.us = phi ptr [ %22, %20 ], [ %.03449.us, %.split.us ]
  %.1.us = phi i32 [ 0, %20 ], [ %.051.us, %.split.us ]
  %24 = icmp eq i32 %17, -1
  %spec.select.us = select i1 %24, i32 1, i32 %.03250.us
  %.val.us = load i32, ptr %11, align 8, !tbaa !34
  %.val42.us = load ptr, ptr %12, align 8, !tbaa !41
  %25 = getelementptr i8, ptr %.val42.us, i64 4
  %.val42.val.us = load i32, ptr %25, align 4, !tbaa !36
  %26 = sub nsw i32 %.val42.val.us, %.val.us
  %27 = icmp slt i32 %15, %26
  br i1 %27, label %.lr.ph.split.us, label %.critedge, !llvm.loop !104

.lr.ph.split:                                     ; preds = %.lr.ph, %37
  %.051 = phi i32 [ %.1, %37 ], [ -1, %.lr.ph ]
  %.03250 = phi i32 [ %spec.select, %37 ], [ 0, %.lr.ph ]
  %.03449 = phi ptr [ %.135, %37 ], [ null, %.lr.ph ]
  %.03648 = phi i32 [ %28, %37 ], [ 0, %.lr.ph ]
  %.val43 = load ptr, ptr %10, align 8, !tbaa !29
  %.not = icmp eq ptr %.val43, null
  br i1 %.not, label %.critedge, label %.split38

.split38:                                         ; preds = %.lr.ph.split
  %28 = add nuw nsw i32 %.03648, 1
  %29 = tail call ptr @Gia_ManDupOutputGroup(ptr noundef nonnull %0, i32 noundef %.03648, i32 noundef %28) #18
  %30 = tail call i32 (ptr, ...) @printf(ptr noundef nonnull dereferenceable(1) @.str.24, i32 noundef %.03648)
  %31 = tail call i32 @Cec_GiaSplitTestInt(ptr noundef %29, i32 noundef %1, i32 noundef %2, i32 noundef %3, i32 noundef %4, i32 noundef %5, i32 noundef %6, i32 noundef %7)
  tail call void @Gia_ManStop(ptr noundef %29) #18
  %32 = icmp eq i32 %31, 0
  %33 = icmp eq i32 %.051, -1
  %or.cond = select i1 %32, i1 %33, i1 false
  br i1 %or.cond, label %34, label %37

34:                                               ; preds = %.split38
  %35 = getelementptr inbounds nuw i8, ptr %29, i64 368
  %36 = load ptr, ptr %35, align 8, !tbaa !78
  store ptr null, ptr %35, align 8, !tbaa !78
  store i32 %.03648, ptr %36, align 4, !tbaa !102
  br label %37

37:                                               ; preds = %34, %.split38
  %.135 = phi ptr [ %36, %34 ], [ %.03449, %.split38 ]
  %.1 = phi i32 [ 0, %34 ], [ %.051, %.split38 ]
  %38 = icmp eq i32 %31, -1
  %spec.select = select i1 %38, i32 1, i32 %.03250
  %.val = load i32, ptr %11, align 8, !tbaa !34
  %.val42 = load ptr, ptr %12, align 8, !tbaa !41
  %39 = getelementptr i8, ptr %.val42, i64 4
  %.val42.val = load i32, ptr %39, align 4, !tbaa !36
  %40 = sub nsw i32 %.val42.val, %.val
  %41 = icmp slt i32 %28, %40
  br i1 %41, label %.lr.ph.split, label %.critedge, !llvm.loop !104

.critedge:                                        ; preds = %.lr.ph.split, %37, %.lr.ph.split.us, %23
  %.034.lcssa = phi ptr [ %.135.us, %23 ], [ %.03449.us, %.lr.ph.split.us ], [ %.135, %37 ], [ %.03449, %.lr.ph.split ]
  %.032.lcssa = phi i32 [ %spec.select.us, %23 ], [ %.03250.us, %.lr.ph.split.us ], [ %spec.select, %37 ], [ %.03250, %.lr.ph.split ]
  %.0.lcssa = phi i32 [ %.1.us, %23 ], [ %.051.us, %.lr.ph.split.us ], [ %.1, %37 ], [ %.051, %.lr.ph.split ]
  %42 = icmp eq i32 %.0.lcssa, -1
  br i1 %42, label %43, label %44

43:                                               ; preds = %.critedge
  %.032.lcssa.fr = freeze i32 %.032.lcssa
  %.not40 = icmp eq i32 %.032.lcssa.fr, 0
  br i1 %.not40, label %.thread, label %45

.thread:                                          ; preds = %8, %43
  br label %45

44:                                               ; preds = %.critedge
  store ptr %.034.lcssa, ptr %9, align 8, !tbaa !78
  br label %45

45:                                               ; preds = %.thread, %43, %44
  %.2 = phi i32 [ 0, %44 ], [ 1, %.thread ], [ -1, %43 ]
  ret i32 %.2
}